; Function Attrs: mustprogress uwtable
define void @_ZN8nanobind6detail7setitemEP7_objectlS2_(ptr noundef %0, i64 noundef %1, ptr noundef %2) local_unnamed_addr #15 {
  %4 = tail call i32 @PySequence_SetItem(ptr noundef %0, i64 noundef %1, ptr noundef %2)
  %.not = icmp eq i32 %4, 0
  br i1 %.not, label %6, label %5

5:                                                ; preds = %3
  tail call void @_ZN8nanobind6detail18raise_python_errorEv() #28
  unreachable

6:                                                ; preds = %3
  ret void
}